target datalayout = "e-m:e-p270:32:32-p271:32:32-p272:64:64-i64:64-i128:128-f80:128-n8:16:32:64-S128"
target triple = "x86_64-unknown-linux-gnu"

%"class.grpc_core::json_detail::JsonObjectLoader" = type { i8 }

@_ZTVN9grpc_core11json_detail15LoaderInterfaceE = linkonce_odr unnamed_addr constant { [3 x ptr] } { [3 x ptr] [ptr null, ptr @_ZTIN9grpc_core11json_detail15LoaderInterfaceE, ptr @__cxa_pure_virtual] }, comdat, align 8
@_ZZN9grpc_core12_GLOBAL__N_122XdsWrrLocalityLbConfig10JsonLoaderERKNS_8JsonArgsEE6loader = internal global ptr null, align 8
@_ZGVZN9grpc_core12_GLOBAL__N_122XdsWrrLocalityLbConfig10JsonLoaderERKNS_8JsonArgsEE6loader = internal global i64 0, align 8

; Function Attrs: mustprogress nounwind uwtable
define linkonce_odr void @_ZN9grpc_core11json_detail15LoaderInterfaceC2Ev(ptr noundef nonnull align 8 dereferenceable(8) %this) unnamed_addr #5 comdat align 2 {
entry:
  %this.addr = alloca ptr, align 8
  store ptr %this, ptr %this.addr, align 8
  %this1 = load ptr, ptr %this.addr, align 8
  store ptr getelementptr inbounds ({ [3 x ptr] }, ptr @_ZTVN9grpc_core11json_detail15LoaderInterfaceE, i32 0, i32 0, i32 2), ptr %this1, align 8
  ret void
}

; Function Attrs: mustprogress nounwind uwtable
define internal void @_ZN9grpc_core11json_detail24FinishedJsonObjectLoaderINS_12_GLOBAL__N_122XdsWrrLocalityLbConfigELm0EvEC2ERKNS0_3VecINS0_7ElementELm0EEE(ptr noundef nonnull align 8 dereferenceable(8) %this, ptr noundef nonnull align 1 dereferenceable(1) %elements) unnamed_addr #5 align 2 {
entry:
  %this.addr = alloca ptr, align 8
  %elements.addr = alloca ptr, align 8
  store ptr %this, ptr %this.addr, align 8
  store ptr %elements, ptr %elements.addr, align 8
  %this1 = load ptr, ptr %this.addr, align 8
  call void @_ZN9grpc_core11json_detail15LoaderInterfaceC2Ev(ptr noundef nonnull align 8 dereferenceable(8) %this1) #3
  store ptr getelementptr inbounds ({ [3 x ptr] }, ptr @_ZTVN9grpc_core11json_detail24FinishedJsonObjectLoaderINS_12_GLOBAL__N_122XdsWrrLocalityLbConfigELm0EvEE, i32 0, i32 0, i32 2), ptr %this1, align 8
  ret void
}

; Function Attrs: mustprogress uwtable
define internal noundef ptr @_ZNK9grpc_core11json_detail16JsonObjectLoaderINS_12_GLOBAL__N_122XdsWrrLocalityLbConfigELm0EE6FinishEv(ptr noundef nonnull align 1 dereferenceable(1) %this) #4 align 2 personality ptr @__gxx_personality_v0 {
entry:
  %this.addr = alloca ptr, align 8
  %exn.slot = alloca ptr, align 8
  %ehselector.slot = alloca i32, align 4
  store ptr %this, ptr %this.addr, align 8
  %this1 = load ptr, ptr %this.addr, align 8
  %call = call noalias noundef nonnull ptr @_Znwm(i64 noundef 8) #14
  invoke void @_ZN9grpc_core11json_detail24FinishedJsonObjectLoaderINS_12_GLOBAL__N_122XdsWrrLocalityLbConfigELm0EvEC2ERKNS0_3VecINS0_7ElementELm0EEE(ptr noundef nonnull align 8 dereferenceable(8) %call, ptr noundef nonnull align 1 dereferenceable(1) %this1)
          to label %invoke.cont unwind label %lpad

invoke.cont:                                      ; preds = %entry
  ret ptr %call

lpad:                                             ; preds = %entry
  %0 = landingpad { ptr, i32 }
          cleanup
  %1 = extractvalue { ptr, i32 } %0, 0
  store ptr %1, ptr %exn.slot, align 8
  %2 = extractvalue { ptr, i32 } %0, 1
  store i32 %2, ptr %ehselector.slot, align 4
  call void @_ZdlPv(ptr noundef %call) #16
  br label %eh.resume

eh.resume:                                        ; preds = %lpad
  %exn = load ptr, ptr %exn.slot, align 8
  %sel = load i32, ptr %ehselector.slot, align 4
  %lpad.val = insertvalue { ptr, i32 } poison, ptr %exn, 0
  %lpad.val2 = insertvalue { ptr, i32 } %lpad.val, i32 %sel, 1
  resume { ptr, i32 } %lpad.val2
}

; Function Attrs: mustprogress nounwind uwtable
define internal void @_ZN9grpc_core11json_detail16JsonObjectLoaderINS_12_GLOBAL__N_122XdsWrrLocalityLbConfigELm0EEC2Ev(ptr noundef nonnull align 1 dereferenceable(1) %this) unnamed_addr #5 align 2 {
entry:
  %this.addr = alloca ptr, align 8
  store ptr %this, ptr %this.addr, align 8
  ret void
}

; Function Attrs: mustprogress uwtable
define internal noundef ptr @_ZN9grpc_core12_GLOBAL__N_122XdsWrrLocalityLbConfig10JsonLoaderERKNS_8JsonArgsE(ptr noundef nonnull align 8 dereferenceable(8) %0) #4 align 2 personality ptr @__gxx_personality_v0 {
entry:
  %.addr = alloca ptr, align 8
  %ref.tmp = alloca %"class.grpc_core::json_detail::JsonObjectLoader", align 1
  %exn.slot = alloca ptr, align 8
  %ehselector.slot = alloca i32, align 4
  store ptr %0, ptr %.addr, align 8
  %1 = load atomic i8, ptr @_ZGVZN9grpc_core12_GLOBAL__N_122XdsWrrLocalityLbConfig10JsonLoaderERKNS_8JsonArgsEE6loader acquire, align 8
  %guard.uninitialized = icmp eq i8 %1, 0
  br i1 %guard.uninitialized, label %init.check, label %init.end, !prof !4

init.check:                                       ; preds = %entry
  %2 = call i32 @__cxa_guard_acquire(ptr @_ZGVZN9grpc_core12_GLOBAL__N_122XdsWrrLocalityLbConfig10JsonLoaderERKNS_8JsonArgsEE6loader) #3
  %tobool = icmp ne i32 %2, 0
  br i1 %tobool, label %init, label %init.end

init:                                             ; preds = %init.check
  invoke void @_ZN9grpc_core11json_detail16JsonObjectLoaderINS_12_GLOBAL__N_122XdsWrrLocalityLbConfigELm0EEC2Ev(ptr noundef nonnull align 1 dereferenceable(1) %ref.tmp)
          to label %invoke.cont unwind label %lpad

invoke.cont:                                      ; preds = %init
  %call = invoke noundef ptr @_ZNK9grpc_core11json_detail16JsonObjectLoaderINS_12_GLOBAL__N_122XdsWrrLocalityLbConfigELm0EE6FinishEv(ptr noundef nonnull align 1 dereferenceable(1) %ref.tmp)
          to label %invoke.cont1 unwind label %lpad

invoke.cont1:                                     ; preds = %invoke.cont
  store ptr %call, ptr @_ZZN9grpc_core12_GLOBAL__N_122XdsWrrLocalityLbConfig10JsonLoaderERKNS_8JsonArgsEE6loader, align 8
  call void @__cxa_guard_release(ptr @_ZGVZN9grpc_core12_GLOBAL__N_122XdsWrrLocalityLbConfig10JsonLoaderERKNS_8JsonArgsEE6loader) #3
  br label %init.end

init.end:                                         ; preds = %invoke.cont1, %init.check, %entry
  %3 = load ptr, ptr @_ZZN9grpc_core12_GLOBAL__N_122XdsWrrLocalityLbConfig10JsonLoaderERKNS_8JsonArgsEE6loader, align 8
  ret ptr %3

lpad:                                             ; preds = %invoke.cont, %init
  %4 = landingpad { ptr, i32 }
          cleanup
  %5 = extractvalue { ptr, i32 } %4, 0
  store ptr %5, ptr %exn.slot, align 8
  %6 = extractvalue { ptr, i32 } %4, 1
  store i32 %6, ptr %ehselector.slot, align 4
  call void @__cxa_guard_abort(ptr @_ZGVZN9grpc_core12_GLOBAL__N_122XdsWrrLocalityLbConfig10JsonLoaderERKNS_8JsonArgsEE6loader) #3
  br label %eh.resume

eh.resume:                                        ; preds = %lpad
  %exn = load ptr, ptr %exn.slot, align 8
  %sel = load i32, ptr %ehselector.slot, align 4
  %lpad.val = insertvalue { ptr, i32 } poison, ptr %exn, 0
  %lpad.val2 = insertvalue { ptr, i32 } %lpad.val, i32 %sel, 1
  resume { ptr, i32 } %lpad.val2
}

; Function Attrs: mustprogress uwtable
define internal void @_ZNK9grpc_core11json_detail10AutoLoaderINS_12_GLOBAL__N_122XdsWrrLocalityLbConfigEE8LoadIntoERKNS_12experimental4JsonERKNS_8JsonArgsEPvPNS_16ValidationErrorsE(ptr noundef nonnull align 8 dereferenceable(8) %this, ptr noundef nonnull align 8 dereferenceable(56) %json, ptr noundef nonnull align 8 dereferenceable(8) %args, ptr noundef %dst, ptr noundef %errors) unnamed_addr #4 align 2 {
entry:
  %this.addr = alloca ptr, align 8
  %json.addr = alloca ptr, align 8
  %args.addr = alloca ptr, align 8
  %dst.addr = alloca ptr, align 8
  %errors.addr = alloca ptr, align 8
  store ptr %this, ptr %this.addr, align 8
  store ptr %json, ptr %json.addr, align 8
  store ptr %args, ptr %args.addr, align 8
  store ptr %dst, ptr %dst.addr, align 8
  store ptr %errors, ptr %errors.addr, align 8
  %0 = load ptr, ptr %args.addr, align 8
  %call = call noundef ptr @_ZN9grpc_core12_GLOBAL__N_122XdsWrrLocalityLbConfig10JsonLoaderERKNS_8JsonArgsE(ptr noundef nonnull align 8 dereferenceable(8) %0)
  %1 = load ptr, ptr %json.addr, align 8
  %2 = load ptr, ptr %args.addr, align 8
  %3 = load ptr, ptr %dst.addr, align 8
  %4 = load ptr, ptr %errors.addr, align 8
  %vtable = load ptr, ptr %call, align 8
  %vfn = getelementptr inbounds ptr, ptr %vtable, i64 0
  %5 = load ptr, ptr %vfn, align 8
  call void %5(ptr noundef nonnull align 8 dereferenceable(8) %call, ptr noundef nonnull align 8 dereferenceable(56) %1, ptr noundef nonnull align 8 dereferenceable(8) %2, ptr noundef %3, ptr noundef %4)
  ret void
}